; Function Attrs: mustprogress uwtable
define internal void @_ZN11opencv_testL45gtest_EstimateAruco_ArucoFirst_EvalGenerator_Ev(ptr dead_on_unwind noalias writable sret(%"class.testing::internal::ParamGenerator") align 8 %0) #3 {
  %2 = alloca %"class.testing::internal::CartesianProductHolder2", align 4
  store i8 0, ptr %2, align 4, !alias.scope !7
  %3 = getelementptr inbounds i8, ptr %2, i64 1
  store i8 1, ptr %3, align 1, !alias.scope !7
  %4 = getelementptr inbounds i8, ptr %2, i64 4
  store i32 -1, ptr %4, align 4, !alias.scope !7
  call void @_ZNK7testing8internal23CartesianProductHolder2INS0_11ValueArray2IbbEENS0_11ValueArray1IiEEEcvNS0_14ParamGeneratorISt5tupleIJT_T0_EEEEIbiEEv(ptr dead_on_unwind writable sret(%"class.testing::internal::ParamGenerator") align 8 %0, ptr noundef nonnull align 4 dereferenceable(8) %2)
  ret void
}